; Function Attrs: nounwind uwtable
define noalias ptr @l_Array_forIn_x27Unsafe_loop___at_Lean_Meta_mkSimpCongrTheorem___spec__4(ptr noundef readnone captures(none) %0, ptr noundef readnone captures(none) %1, ptr noundef readonly captures(none) %2, i64 noundef %3, i64 noundef %4, ptr noundef %5, ptr noundef readnone captures(none) %6, ptr noundef readnone captures(none) %7, ptr noundef readnone captures(none) %8, ptr noundef readnone captures(none) %9, ptr noundef %10) local_unnamed_addr #1 {
  %.not30 = icmp ult i64 %4, %3
  br i1 %.not30, label %.lr.ph, label %._crit_edge

.lr.ph:                                           ; preds = %11
  %12 = getelementptr inbounds nuw i8, ptr %2, i64 24
  br label %16

._crit_edge:                                      ; preds = %27, %11
  %.020.lcssa = phi ptr [ %5, %11 ], [ %28, %27 ]
  tail call void @lean_inc_heartbeat() #5
  %13 = tail call noalias ptr @mi_malloc_small(i64 noundef 24) #5
  %14 = icmp eq ptr %13, null
  br i1 %14, label %15, label %30

15:                                               ; preds = %._crit_edge
  tail call void @lean_internal_panic_out_of_memory() #6
  unreachable

16:                                               ; preds = %.lr.ph, %27
  %.01832 = phi i64 [ %4, %.lr.ph ], [ %29, %27 ]
  %.02031 = phi ptr [ %5, %.lr.ph ], [ %28, %27 ]
  %17 = getelementptr inbounds nuw [0 x ptr], ptr %12, i64 0, i64 %.01832
  %18 = load ptr, ptr %17, align 8, !tbaa !9
  %19 = ptrtoint ptr %18 to i64
  %20 = and i64 %19, 1
  %.not.i = icmp eq i64 %20, 0
  br i1 %.not.i, label %21, label %27

21:                                               ; preds = %16
  %.val.i.i = load i32, ptr %18, align 4, !tbaa !4
  %22 = icmp sgt i32 %.val.i.i, 0
  br i1 %22, label %23, label %25, !prof !11

23:                                               ; preds = %21
  %24 = add nuw i32 %.val.i.i, 1
  store i32 %24, ptr %18, align 4, !tbaa !4
  br label %27

25:                                               ; preds = %21
  %.not.i.i = icmp eq i32 %.val.i.i, 0
  br i1 %.not.i.i, label %27, label %26

26:                                               ; preds = %25
  tail call void @lean_inc_ref_cold(ptr noundef nonnull %18) #5
  br label %27

27:                                               ; preds = %26, %25, %23, %16
  %28 = tail call ptr @l_Lean_RBNode_insert___at_Lean_MVarIdSet_insert___spec__1(ptr noundef %.02031, ptr noundef %18, ptr noundef nonnull inttoptr (i64 1 to ptr)) #5
  %29 = add nuw i64 %.01832, 1
  %exitcond.not = icmp eq i64 %29, %3
  br i1 %exitcond.not, label %._crit_edge, label %16

30:                                               ; preds = %._crit_edge
  %31 = getelementptr inbounds nuw i8, ptr %13, i64 4
  store i32 1, ptr %13, align 4, !tbaa !4
  store i32 131096, ptr %31, align 4
  %32 = getelementptr inbounds nuw i8, ptr %13, i64 8
  store ptr %.020.lcssa, ptr %32, align 8, !tbaa !9
  %33 = getelementptr inbounds nuw i8, ptr %13, i64 16
  store ptr %10, ptr %33, align 8, !tbaa !9
  ret ptr %13
}